target datalayout = "e-m:e-p270:32:32-p271:32:32-p272:64:64-i64:64-i128:128-f80:128-n8:16:32:64-S128"
target triple = "x86_64-pc-linux-gnu"

%struct.evp_pkey_ctx_st = type { i32, ptr, ptr, ptr, ptr, %union.anon, %struct.anon.4, ptr, ptr, ptr, i32, i32, ptr, ptr, ptr, ptr, ptr, i8, ptr }
%union.anon = type { %struct.anon.0 }
%struct.anon.0 = type { ptr, ptr }
%struct.anon.4 = type { ptr, ptr, i64, i8 }

@.str = private unnamed_addr constant [33 x i8] c"../openssl/crypto/evp/pmeth_gn.c\00", align 1
@__func__.EVP_PKEY_keygen = private unnamed_addr constant [16 x i8] c"EVP_PKEY_keygen\00", align 1

; Function Attrs: nounwind uwtable
define i32 @EVP_PKEY_keygen(ptr noundef %0, ptr noundef %1) #0 {
  %3 = alloca i32, align 4
  %4 = alloca ptr, align 8
  %5 = alloca ptr, align 8
  store ptr %0, ptr %4, align 8, !tbaa !3
  store ptr %1, ptr %5, align 8, !tbaa !34
  %6 = load ptr, ptr %4, align 8, !tbaa !3
  %7 = getelementptr inbounds nuw %struct.evp_pkey_ctx_st, ptr %6, i32 0, i32 0
  %8 = load i32, ptr %7, align 8, !tbaa !10
  %9 = icmp ne i32 %8, 4
  br i1 %9, label %10, label %11

10:                                               ; preds = %2
  call void @ERR_new()
  call void @ERR_set_debug(ptr noundef @.str, i32 noundef 271, ptr noundef @__func__.EVP_PKEY_keygen)
  call void (i32, i32, ptr, ...) @ERR_set_error(i32 noundef 6, i32 noundef 151, ptr noundef null)
  store i32 -1, ptr %3, align 4
  br label %15

11:                                               ; preds = %2
  %12 = load ptr, ptr %4, align 8, !tbaa !3
  %13 = load ptr, ptr %5, align 8, !tbaa !34
  %14 = call i32 @EVP_PKEY_generate(ptr noundef %12, ptr noundef %13)
  store i32 %14, ptr %3, align 4
  br label %15

15:                                               ; preds = %11, %10
  %16 = load i32, ptr %3, align 4
  ret i32 %16
}

; Function Attrs: nounwind uwtable
define i32 @EVP_PKEY_keygen_init(ptr noundef %0) #0 {
  %2 = alloca ptr, align 8
  store ptr %0, ptr %2, align 8, !tbaa !3
  %3 = load ptr, ptr %2, align 8, !tbaa !3
  %4 = call i32 @gen_init(ptr noundef %3, i32 noundef 4)
  ret i32 %4
}

; Function Attrs: nounwind uwtable
define ptr @EVP_PKEY_new_mac_key(i32 noundef %0, ptr noundef %1, ptr noundef %2, i32 noundef %3) #0 {
  %5 = alloca ptr, align 8
  %6 = alloca i32, align 4
  %7 = alloca ptr, align 8
  %8 = alloca ptr, align 8
  %9 = alloca i32, align 4
  %10 = alloca ptr, align 8
  %11 = alloca ptr, align 8
  %12 = alloca i32, align 4
  store i32 %0, ptr %6, align 4, !tbaa !8
  store ptr %1, ptr %7, align 8, !tbaa !59
  store ptr %2, ptr %8, align 8, !tbaa !60
  store i32 %3, ptr %9, align 4, !tbaa !8
  call void @llvm.lifetime.start.p0(i64 8, ptr %10) #4
  store ptr null, ptr %10, align 8, !tbaa !3
  call void @llvm.lifetime.start.p0(i64 8, ptr %11) #4
  store ptr null, ptr %11, align 8, !tbaa !36
  %13 = load i32, ptr %6, align 4, !tbaa !8
  %14 = load ptr, ptr %7, align 8, !tbaa !59
  %15 = call ptr @EVP_PKEY_CTX_new_id(i32 noundef %13, ptr noundef %14)
  store ptr %15, ptr %10, align 8, !tbaa !3
  %16 = load ptr, ptr %10, align 8, !tbaa !3
  %17 = icmp ne ptr %16, null
  br i1 %17, label %19, label %18

18:                                               ; preds = %4
  store ptr null, ptr %5, align 8
  store i32 1, ptr %12, align 4
  br label %40

19:                                               ; preds = %4
  %20 = load ptr, ptr %10, align 8, !tbaa !3
  %21 = call i32 @EVP_PKEY_keygen_init(ptr noundef %20)
  %22 = icmp sle i32 %21, 0
  br i1 %22, label %23, label %24

23:                                               ; preds = %19
  br label %37

24:                                               ; preds = %19
  %25 = load ptr, ptr %10, align 8, !tbaa !3
  %26 = load ptr, ptr %8, align 8, !tbaa !60
  %27 = load i32, ptr %9, align 4, !tbaa !8
  %28 = call i32 @EVP_PKEY_CTX_set_mac_key(ptr noundef %25, ptr noundef %26, i32 noundef %27)
  %29 = icmp sle i32 %28, 0
  br i1 %29, label %30, label %31

30:                                               ; preds = %24
  br label %37

31:                                               ; preds = %24
  %32 = load ptr, ptr %10, align 8, !tbaa !3
  %33 = call i32 @EVP_PKEY_keygen(ptr noundef %32, ptr noundef %11)
  %34 = icmp sle i32 %33, 0
  br i1 %34, label %35, label %36

35:                                               ; preds = %31
  br label %37

36:                                               ; preds = %31
  br label %37

37:                                               ; preds = %36, %35, %30, %23
  %38 = load ptr, ptr %10, align 8, !tbaa !3
  call void @EVP_PKEY_CTX_free(ptr noundef %38)
  %39 = load ptr, ptr %11, align 8, !tbaa !36
  store ptr %39, ptr %5, align 8
  store i32 1, ptr %12, align 4
  br label %40

40:                                               ; preds = %37, %18
  call void @llvm.lifetime.end.p0(i64 8, ptr %11) #4
  call void @llvm.lifetime.end.p0(i64 8, ptr %10) #4
  %41 = load ptr, ptr %5, align 8
  ret ptr %41
}