; Function Attrs: nounwind uwtable
define ptr @EVP_PKEY_new_mac_key(i32 noundef %0, ptr noundef %1, ptr noundef %2, i32 noundef %3) local_unnamed_addr #0 {
  %5 = alloca ptr, align 8
  call void @llvm.lifetime.start.p0(i64 8, ptr nonnull %5) #6
  store ptr null, ptr %5, align 8, !tbaa !31
  %6 = tail call ptr @EVP_PKEY_CTX_new_id(i32 noundef %0, ptr noundef %1) #6
  %.not = icmp eq ptr %6, null
  br i1 %.not, label %19, label %7

7:                                                ; preds = %4
  %8 = tail call fastcc i32 @gen_init(ptr noundef nonnull %6, i32 noundef 4)
  %9 = icmp slt i32 %8, 1
  br i1 %9, label %EVP_PKEY_keygen.exit, label %10

10:                                               ; preds = %7
  %11 = tail call i32 @EVP_PKEY_CTX_set_mac_key(ptr noundef nonnull %6, ptr noundef %2, i32 noundef %3) #6
  %12 = icmp slt i32 %11, 1
  br i1 %12, label %EVP_PKEY_keygen.exit, label %13

13:                                               ; preds = %10
  %14 = load i32, ptr %6, align 8, !tbaa !3
  %.not.i = icmp eq i32 %14, 4
  br i1 %.not.i, label %16, label %15

15:                                               ; preds = %13
  tail call void @ERR_new() #6
  tail call void @ERR_set_debug(ptr noundef nonnull @.str, i32 noundef 271, ptr noundef nonnull @__func__.EVP_PKEY_keygen) #6
  tail call void (i32, i32, ptr, ...) @ERR_set_error(i32 noundef 6, i32 noundef 151, ptr noundef null) #6
  br label %EVP_PKEY_keygen.exit

16:                                               ; preds = %13
  %17 = call i32 @EVP_PKEY_generate(ptr noundef nonnull %6, ptr noundef nonnull %5)
  br label %EVP_PKEY_keygen.exit

EVP_PKEY_keygen.exit:                             ; preds = %16, %15, %10, %7
  call void @EVP_PKEY_CTX_free(ptr noundef nonnull %6) #6
  %18 = load ptr, ptr %5, align 8, !tbaa !31
  br label %19

19:                                               ; preds = %4, %EVP_PKEY_keygen.exit
  %.0 = phi ptr [ %18, %EVP_PKEY_keygen.exit ], [ null, %4 ]
  call void @llvm.lifetime.end.p0(i64 8, ptr nonnull %5) #6
  ret ptr %.0
}